; Function Attrs: mustprogress nofree nounwind willreturn memory(write, argmem: none, inaccessiblemem: readwrite) uwtable
define noalias noundef ptr @Mio_SopConst0() local_unnamed_addr #1 {
  %1 = tail call noalias dereferenceable_or_null(16) ptr @malloc(i64 noundef 16) #6
  %2 = getelementptr inbounds nuw i8, ptr %1, i64 4
  store i32 0, ptr %2, align 4, !tbaa !3
  store i32 16, ptr %1, align 8, !tbaa !14
  %3 = tail call noalias dereferenceable_or_null(64) ptr @malloc(i64 noundef 64) #6
  %4 = getelementptr inbounds nuw i8, ptr %1, i64 8
  store ptr %3, ptr %4, align 8, !tbaa !10
  ret ptr %1
}